target datalayout = "e-m:e-p270:32:32-p271:32:32-p272:64:64-i64:64-i128:128-f80:128-n8:16:32:64-S128"
target triple = "x86_64-pc-linux-gnu"

; Function Attrs: mustprogress uwtable
define ptr @proj_create_argv(ptr noundef %0, i32 noundef %1, ptr noundef %2) #1 {
  %4 = alloca ptr, align 8
  %5 = alloca ptr, align 8
  %6 = alloca i32, align 4
  %7 = alloca ptr, align 8
  %8 = alloca ptr, align 8
  %9 = alloca ptr, align 8
  store ptr %0, ptr %5, align 8
  store i32 %1, ptr %6, align 4
  store ptr %2, ptr %7, align 8
  %10 = load ptr, ptr %5, align 8
  %11 = icmp eq ptr null, %10
  br i1 %11, label %12, label %14

12:                                               ; preds = %3
  %13 = call noundef ptr @_Z18pj_get_default_ctxv()
  store ptr %13, ptr %5, align 8
  br label %14

14:                                               ; preds = %12, %3
  %15 = load ptr, ptr %7, align 8
  %16 = icmp eq ptr null, %15
  br i1 %16, label %17, label %19

17:                                               ; preds = %14
  %18 = load ptr, ptr %5, align 8
  call void @_Z22proj_context_errno_setP6pj_ctxi(ptr noundef %18, i32 noundef 1026)
  store ptr null, ptr %4, align 8
  br label %34

19:                                               ; preds = %14
  %20 = load i32, ptr %6, align 4
  %21 = sext i32 %20 to i64
  %22 = load ptr, ptr %7, align 8
  %23 = call noundef ptr @_Z12pj_make_argsmPPc(i64 noundef %21, ptr noundef %22)
  store ptr %23, ptr %8, align 8
  %24 = load ptr, ptr %8, align 8
  %25 = icmp eq ptr null, %24
  br i1 %25, label %26, label %28

26:                                               ; preds = %19
  %27 = load ptr, ptr %5, align 8
  call void @_Z22proj_context_errno_setP6pj_ctxi(ptr noundef %27, i32 noundef 1024)
  store ptr null, ptr %4, align 8
  br label %34

28:                                               ; preds = %19
  %29 = load ptr, ptr %5, align 8
  %30 = load ptr, ptr %8, align 8
  %31 = call ptr @proj_create(ptr noundef %29, ptr noundef %30)
  store ptr %31, ptr %9, align 8
  %32 = load ptr, ptr %8, align 8
  call void @free(ptr noundef %32) #19
  %33 = load ptr, ptr %9, align 8
  store ptr %33, ptr %4, align 8
  br label %34

34:                                               ; preds = %28, %26, %17
  %35 = load ptr, ptr %4, align 8
  ret ptr %35
}