; Function Attrs: mustprogress uwtable
define ptr @proj_create_argv(ptr noundef %0, i32 noundef %1, ptr noundef %2) local_unnamed_addr #1 {
  %4 = icmp eq ptr %0, null
  br i1 %4, label %5, label %7

5:                                                ; preds = %3
  %6 = tail call noundef ptr @_Z18pj_get_default_ctxv()
  br label %7

7:                                                ; preds = %5, %3
  %.011 = phi ptr [ %6, %5 ], [ %0, %3 ]
  %8 = icmp eq ptr %2, null
  br i1 %8, label %9, label %10

9:                                                ; preds = %7
  tail call void @_Z22proj_context_errno_setP6pj_ctxi(ptr noundef %.011, i32 noundef 1026)
  br label %17

10:                                               ; preds = %7
  %11 = sext i32 %1 to i64
  %12 = tail call noundef ptr @_Z12pj_make_argsmPPc(i64 noundef %11, ptr noundef nonnull %2)
  %13 = icmp eq ptr %12, null
  br i1 %13, label %14, label %15

14:                                               ; preds = %10
  tail call void @_Z22proj_context_errno_setP6pj_ctxi(ptr noundef %.011, i32 noundef 1024)
  br label %17

15:                                               ; preds = %10
  %16 = tail call ptr @proj_create(ptr noundef %.011, ptr noundef nonnull %12)
  tail call void @free(ptr noundef nonnull %12) #33
  br label %17

17:                                               ; preds = %15, %14, %9
  %.0 = phi ptr [ null, %9 ], [ null, %14 ], [ %16, %15 ]
  ret ptr %.0
}